; Function Attrs: mustprogress uwtable
define internal void @_ZNK6google8protobuf8compiler3cpp12_GLOBAL__N_114SingularString28GenerateAggregateInitializerEPNS0_2io7PrinterE(ptr nocapture noundef nonnull readonly align 8 dereferenceable(104) %this, ptr noundef %p) unnamed_addr #3 align 2 personality ptr @__gxx_personality_v0 {
entry:
  %ref.tmp4 = alloca %"class.absl::lts_20230802::log_internal::LogMessageFatal", align 8
  %should_split_.i = getelementptr inbounds i8, ptr %this, i64 64
  %0 = load i8, ptr %should_split_.i, align 8
  %1 = and i8 %0, 1
  %tobool.i.not = icmp eq i8 %1, 0
  %is_inlined_.i6 = getelementptr inbounds i8, ptr %this, i64 72
  %2 = load i8, ptr %is_inlined_.i6, align 8
  %3 = and i8 %2, 1
  %tobool.i7.not = icmp eq i8 %3, 0
  br i1 %tobool.i.not, label %if.else, label %if.then

if.then:                                          ; preds = %entry
  br i1 %tobool.i7.not, label %cleanup.done, label %cond.false

cond.false:                                       ; preds = %if.then
  call void @_ZN4absl12lts_2023080212log_internal15LogMessageFatalC1EPKciSt17basic_string_viewIcSt11char_traitsIcEE(ptr noundef nonnull align 8 dereferenceable(16) %ref.tmp4, ptr noundef nonnull @.str.114, i32 noundef 712, i64 13, ptr nonnull @.str.115) #29
  call void @_ZN4absl12lts_2023080212log_internal15LogMessageFatalD1Ev(ptr noundef nonnull align 8 dereferenceable(16) %ref.tmp4) #28
  unreachable

cleanup.done:                                     ; preds = %if.then
  tail call void @_ZN6google8protobuf2io7Printer4EmitEN4absl12lts_202308024SpanIKNS2_3SubEEESt17basic_string_viewIcSt11char_traitsIcEENS2_14SourceLocationE(ptr noundef nonnull align 8 dereferenceable(256) %p, ptr null, i64 0, i64 46, ptr nonnull @.str.116)
  br label %if.end17

if.else:                                          ; preds = %entry
  br i1 %tobool.i7.not, label %if.then9, label %if.else13

if.then9:                                         ; preds = %if.else
  tail call void @_ZN6google8protobuf2io7Printer4EmitEN4absl12lts_202308024SpanIKNS2_3SubEEESt17basic_string_viewIcSt11char_traitsIcEENS2_14SourceLocationE(ptr noundef nonnull align 8 dereferenceable(256) %p, ptr null, i64 0, i64 33, ptr nonnull @.str.117)
  br label %if.end17

if.else13:                                        ; preds = %if.else
  tail call void @_ZN6google8protobuf2io7Printer4EmitEN4absl12lts_202308024SpanIKNS2_3SubEEESt17basic_string_viewIcSt11char_traitsIcEENS2_14SourceLocationE(ptr noundef nonnull align 8 dereferenceable(256) %p, ptr null, i64 0, i64 38, ptr nonnull @.str.118)
  br label %if.end17

if.end17:                                         ; preds = %if.then9, %if.else13, %cleanup.done
  ret void
}